target datalayout = "e-m:e-p270:32:32-p271:32:32-p272:64:64-i64:64-i128:128-f80:128-n8:16:32:64-S128"
target triple = "x86_64-pc-linux-gnu"

%"class.std::__cxx11::basic_string" = type { %"struct.std::__cxx11::basic_string<char>::_Alloc_hider", i64, %union.anon }
%"struct.std::__cxx11::basic_string<char>::_Alloc_hider" = type { ptr }
%union.anon = type { i64, [8 x i8] }
%"class.google::protobuf::TextFormat::Printer" = type { i32, i8, i8, i8, i8, i8, i8, i8, i64, %"class.std::unique_ptr", %"class.std::map", %"class.std::map.5", ptr }
%"class.std::unique_ptr" = type { %"struct.std::__uniq_ptr_data" }
%"struct.std::__uniq_ptr_data" = type { %"class.std::__uniq_ptr_impl" }
%"class.std::__uniq_ptr_impl" = type { %"class.std::tuple" }
%"class.std::tuple" = type { %"struct.std::_Tuple_impl" }
%"struct.std::_Tuple_impl" = type { %"struct.std::_Head_base.1" }
%"struct.std::_Head_base.1" = type { ptr }
%"class.std::map" = type { %"class.std::_Rb_tree" }
%"class.std::_Rb_tree" = type { %"struct.std::_Rb_tree<const google::protobuf::FieldDescriptor *, std::pair<const google::protobuf::FieldDescriptor *const, std::unique_ptr<const google::protobuf::TextFormat::FastFieldValuePrinter>>, std::_Select1st<std::pair<const google::protobuf::FieldDescriptor *const, std::unique_ptr<const google::protobuf::TextFormat::FastFieldValuePrinter>>>, std::less<const google::protobuf::FieldDescriptor *>>::_Rb_tree_impl" }
%"struct.std::_Rb_tree<const google::protobuf::FieldDescriptor *, std::pair<const google::protobuf::FieldDescriptor *const, std::unique_ptr<const google::protobuf::TextFormat::FastFieldValuePrinter>>, std::_Select1st<std::pair<const google::protobuf::FieldDescriptor *const, std::unique_ptr<const google::protobuf::TextFormat::FastFieldValuePrinter>>>, std::less<const google::protobuf::FieldDescriptor *>>::_Rb_tree_impl" = type { [8 x i8], %"struct.std::_Rb_tree_header" }
%"struct.std::_Rb_tree_header" = type { %"struct.std::_Rb_tree_node_base", i64 }
%"struct.std::_Rb_tree_node_base" = type { i32, ptr, ptr, ptr }
%"class.std::map.5" = type { %"class.std::_Rb_tree.6" }
%"class.std::_Rb_tree.6" = type { %"struct.std::_Rb_tree<const google::protobuf::Descriptor *, std::pair<const google::protobuf::Descriptor *const, std::unique_ptr<const google::protobuf::TextFormat::MessagePrinter>>, std::_Select1st<std::pair<const google::protobuf::Descriptor *const, std::unique_ptr<const google::protobuf::TextFormat::MessagePrinter>>>, std::less<const google::protobuf::Descriptor *>>::_Rb_tree_impl" }
%"struct.std::_Rb_tree<const google::protobuf::Descriptor *, std::pair<const google::protobuf::Descriptor *const, std::unique_ptr<const google::protobuf::TextFormat::MessagePrinter>>, std::_Select1st<std::pair<const google::protobuf::Descriptor *const, std::unique_ptr<const google::protobuf::TextFormat::MessagePrinter>>>, std::less<const google::protobuf::Descriptor *>>::_Rb_tree_impl" = type { [8 x i8], %"struct.std::_Rb_tree_header" }
%"class.google::protobuf::internal::LogMessage" = type { i32, ptr, i32, %"class.std::__cxx11::basic_string" }
%"class.google::protobuf::internal::LogFinisher" = type { i8 }
%"class.google::protobuf::io::StringOutputStream" = type { %"class.google::protobuf::io::ZeroCopyOutputStream", ptr }
%"class.google::protobuf::io::ZeroCopyOutputStream" = type { ptr }
%"struct.google::protobuf::Metadata" = type { ptr, ptr }
%"class.google::protobuf::TextFormat::BaseTextGenerator" = type { ptr }
%"class.google::protobuf::TextFormat::Printer::TextGenerator" = type { %"class.google::protobuf::TextFormat::BaseTextGenerator", ptr, ptr, i32, i8, i8, i8, i32, i32 }

@.str.1 = private unnamed_addr constant [144 x i8] c"generated/home/dtcxzyw/WorkSpace/Projects/compilers/llvm-opt-benchmark/bench/opencv/opencv/3rdparty/protobuf/src/google/protobuf/text_format.cc\00", align 1
@.str.18 = private unnamed_addr constant [23 x i8] c"CHECK failed: output: \00", align 1
@.str.19 = private unnamed_addr constant [28 x i8] c"output specified is nullptr\00", align 1

; Function Attrs: mustprogress nounwind uwtable
define linkonce_odr hidden void @_ZNSt11char_traitsIcE6assignERcRKc(ptr noundef nonnull align 1 dereferenceable(1) %0, ptr noundef nonnull align 1 dereferenceable(1) %1) #5 comdat align 2 {
  %3 = alloca ptr, align 8
  %4 = alloca ptr, align 8
  store ptr %0, ptr %3, align 8, !tbaa !170
  store ptr %1, ptr %4, align 8, !tbaa !170
  %5 = load ptr, ptr %4, align 8, !tbaa !170
  %6 = load i8, ptr %5, align 1, !tbaa !49
  %7 = load ptr, ptr %3, align 8, !tbaa !170
  store i8 %6, ptr %7, align 1, !tbaa !49
  ret void
}

; Function Attrs: mustprogress nounwind uwtable
define available_externally noundef ptr @_ZNKSt7__cxx1112basic_stringIcSt11char_traitsIcESaIcEE7_M_dataEv(ptr noundef nonnull align 8 dereferenceable(32) %0) #5 align 2 {
  %2 = alloca ptr, align 8
  store ptr %0, ptr %2, align 8, !tbaa !8
  %3 = load ptr, ptr %2, align 8
  %4 = getelementptr inbounds nuw %"class.std::__cxx11::basic_string", ptr %3, i32 0, i32 0
  %5 = getelementptr inbounds nuw %"struct.std::__cxx11::basic_string<char>::_Alloc_hider", ptr %4, i32 0, i32 0
  %6 = load ptr, ptr %5, align 8, !tbaa !460
  ret ptr %6
}

; Function Attrs: mustprogress nounwind uwtable
define available_externally void @_ZNSt7__cxx1112basic_stringIcSt11char_traitsIcESaIcEE9_M_lengthEm(ptr noundef nonnull align 8 dereferenceable(32) %0, i64 noundef %1) #5 align 2 {
  %3 = alloca ptr, align 8
  %4 = alloca i64, align 8
  store ptr %0, ptr %3, align 8, !tbaa !8
  store i64 %1, ptr %4, align 8, !tbaa !51
  %5 = load ptr, ptr %3, align 8
  %6 = load i64, ptr %4, align 8, !tbaa !51
  %7 = getelementptr inbounds nuw %"class.std::__cxx11::basic_string", ptr %5, i32 0, i32 1
  store i64 %6, ptr %7, align 8, !tbaa !52
  ret void
}

; Function Attrs: inlinehint mustprogress nounwind uwtable
define linkonce_odr hidden void @_ZN6google8protobuf10TextFormat17BaseTextGeneratorC2Ev(ptr noundef nonnull align 8 dereferenceable(8) %0) unnamed_addr #7 comdat align 2 {
  %2 = alloca ptr, align 8
  store ptr %0, ptr %2, align 8, !tbaa !174
  %3 = load ptr, ptr %2, align 8
  store ptr getelementptr inbounds inrange(-16, 48) ({ [8 x ptr] }, ptr @_ZTVN6google8protobuf10TextFormat17BaseTextGeneratorE, i32 0, i32 0, i32 2), ptr %3, align 8, !tbaa !130
  ret void
}

; Function Attrs: mustprogress uwtable
define available_externally void @_ZNSt7__cxx1112basic_stringIcSt11char_traitsIcESaIcEE13_M_set_lengthEm(ptr noundef nonnull align 8 dereferenceable(32) %0, i64 noundef %1) #4 align 2 {
  %3 = alloca ptr, align 8
  %4 = alloca i64, align 8
  %5 = alloca i8, align 1
  store ptr %0, ptr %3, align 8, !tbaa !8
  store i64 %1, ptr %4, align 8, !tbaa !51
  %6 = load ptr, ptr %3, align 8
  %7 = load i64, ptr %4, align 8, !tbaa !51
  call void @_ZNSt7__cxx1112basic_stringIcSt11char_traitsIcESaIcEE9_M_lengthEm(ptr noundef nonnull align 8 dereferenceable(32) %6, i64 noundef %7)
  %8 = call noundef ptr @_ZNKSt7__cxx1112basic_stringIcSt11char_traitsIcESaIcEE7_M_dataEv(ptr noundef nonnull align 8 dereferenceable(32) %6)
  %9 = load i64, ptr %4, align 8, !tbaa !51
  %10 = getelementptr inbounds nuw i8, ptr %8, i64 %9
  call void @llvm.lifetime.start.p0(i64 1, ptr %5) #3
  store i8 0, ptr %5, align 1, !tbaa !49
  call void @_ZNSt11char_traitsIcE6assignERcRKc(ptr noundef nonnull align 1 dereferenceable(1) %10, ptr noundef nonnull align 1 dereferenceable(1) %5) #3
  call void @llvm.lifetime.end.p0(i64 1, ptr %5) #3
  ret void
}

; Function Attrs: mustprogress nounwind uwtable
define linkonce_odr hidden void @_ZN6google8protobuf2io20ZeroCopyOutputStreamD2Ev(ptr noundef nonnull align 8 dereferenceable(8) %0) unnamed_addr #5 comdat align 2 {
  %2 = alloca ptr, align 8
  store ptr %0, ptr %2, align 8, !tbaa !258
  ret void
}

; Function Attrs: mustprogress uwtable
define linkonce_odr hidden noundef ptr @_ZNK6google8protobuf7Message13GetReflectionEv(ptr noundef nonnull align 8 dereferenceable(16) %0) #4 comdat align 2 {
  %2 = alloca ptr, align 8
  %3 = alloca %"struct.google::protobuf::Metadata", align 8
  store ptr %0, ptr %2, align 8, !tbaa !3
  %4 = load ptr, ptr %2, align 8
  call void @llvm.lifetime.start.p0(i64 16, ptr %3) #3
  %5 = load ptr, ptr %4, align 8, !tbaa !130
  %6 = getelementptr inbounds ptr, ptr %5, i64 17
  %7 = load ptr, ptr %6, align 8
  %8 = call { ptr, ptr } %7(ptr noundef nonnull align 8 dereferenceable(16) %4)
  %9 = getelementptr inbounds nuw { ptr, ptr }, ptr %3, i32 0, i32 0
  %10 = extractvalue { ptr, ptr } %8, 0
  store ptr %10, ptr %9, align 8
  %11 = getelementptr inbounds nuw { ptr, ptr }, ptr %3, i32 0, i32 1
  %12 = extractvalue { ptr, ptr } %8, 1
  store ptr %12, ptr %11, align 8
  %13 = getelementptr inbounds nuw %"struct.google::protobuf::Metadata", ptr %3, i32 0, i32 1
  %14 = load ptr, ptr %13, align 8, !tbaa !280
  call void @llvm.lifetime.end.p0(i64 16, ptr %3) #3
  ret ptr %14
}

; Function Attrs: mustprogress nounwind uwtable
define linkonce_odr hidden void @_ZN6google8protobuf10TextFormat7Printer13TextGeneratorC2EPNS0_2io20ZeroCopyOutputStreamEi(ptr noundef nonnull align 8 dereferenceable(40) %0, ptr noundef %1, i32 noundef %2) unnamed_addr #5 comdat align 2 {
  %4 = alloca ptr, align 8
  %5 = alloca ptr, align 8
  %6 = alloca i32, align 4
  store ptr %0, ptr %4, align 8, !tbaa !263
  store ptr %1, ptr %5, align 8, !tbaa !258
  store i32 %2, ptr %6, align 4, !tbaa !95
  %7 = load ptr, ptr %4, align 8
  call void @_ZN6google8protobuf10TextFormat17BaseTextGeneratorC2Ev(ptr noundef nonnull align 8 dereferenceable(8) %7) #3
  store ptr getelementptr inbounds inrange(-16, 48) ({ [8 x ptr] }, ptr @_ZTVN6google8protobuf10TextFormat7Printer13TextGeneratorE, i32 0, i32 0, i32 2), ptr %7, align 8, !tbaa !130
  %8 = getelementptr inbounds nuw %"class.google::protobuf::TextFormat::Printer::TextGenerator", ptr %7, i32 0, i32 1
  %9 = load ptr, ptr %5, align 8, !tbaa !258
  store ptr %9, ptr %8, align 8, !tbaa !265
  %10 = getelementptr inbounds nuw %"class.google::protobuf::TextFormat::Printer::TextGenerator", ptr %7, i32 0, i32 2
  store ptr null, ptr %10, align 8, !tbaa !268
  %11 = getelementptr inbounds nuw %"class.google::protobuf::TextFormat::Printer::TextGenerator", ptr %7, i32 0, i32 3
  store i32 0, ptr %11, align 8, !tbaa !269
  %12 = getelementptr inbounds nuw %"class.google::protobuf::TextFormat::Printer::TextGenerator", ptr %7, i32 0, i32 4
  store i8 1, ptr %12, align 4, !tbaa !270
  %13 = getelementptr inbounds nuw %"class.google::protobuf::TextFormat::Printer::TextGenerator", ptr %7, i32 0, i32 5
  store i8 0, ptr %13, align 1, !tbaa !271
  %14 = getelementptr inbounds nuw %"class.google::protobuf::TextFormat::Printer::TextGenerator", ptr %7, i32 0, i32 6
  store i8 0, ptr %14, align 2, !tbaa !272
  %15 = getelementptr inbounds nuw %"class.google::protobuf::TextFormat::Printer::TextGenerator", ptr %7, i32 0, i32 7
  %16 = load i32, ptr %6, align 4, !tbaa !95
  store i32 %16, ptr %15, align 8, !tbaa !273
  %17 = getelementptr inbounds nuw %"class.google::protobuf::TextFormat::Printer::TextGenerator", ptr %7, i32 0, i32 8
  %18 = load i32, ptr %6, align 4, !tbaa !95
  store i32 %18, ptr %17, align 4, !tbaa !274
  ret void
}

; Function Attrs: mustprogress nounwind uwtable
define available_externally void @_ZNSt7__cxx1112basic_stringIcSt11char_traitsIcESaIcEE5clearEv(ptr noundef nonnull align 8 dereferenceable(32) %0) #5 align 2 personality ptr @__gxx_personality_v0 {
  %2 = alloca ptr, align 8
  store ptr %0, ptr %2, align 8, !tbaa !8
  %3 = load ptr, ptr %2, align 8
  invoke void @_ZNSt7__cxx1112basic_stringIcSt11char_traitsIcESaIcEE13_M_set_lengthEm(ptr noundef nonnull align 8 dereferenceable(32) %3, i64 noundef 0)
          to label %4 unwind label %5

4:                                                ; preds = %1
  ret void

5:                                                ; preds = %1
  %6 = landingpad { ptr, i32 }
          catch ptr null
  %7 = extractvalue { ptr, i32 } %6, 0
  call void @__clang_call_terminate(ptr %7) #22
  unreachable
}

; Function Attrs: mustprogress uwtable
define hidden void @_ZNK6google8protobuf10TextFormat7Printer23PrintFieldValueToStringERKNS0_7MessageEPKNS0_15FieldDescriptorEiPNSt7__cxx1112basic_stringIcSt11char_traitsIcESaIcEEE(ptr noundef nonnull align 8 dereferenceable(136) %0, ptr noundef nonnull align 8 dereferenceable(16) %1, ptr noundef %2, i32 noundef %3, ptr noundef %4) #4 align 2 personality ptr @__gxx_personality_v0 {
  %6 = alloca ptr, align 8
  %7 = alloca ptr, align 8
  %8 = alloca ptr, align 8
  %9 = alloca i32, align 4
  %10 = alloca ptr, align 8
  %11 = alloca %"class.google::protobuf::internal::LogMessage", align 8
  %12 = alloca i1, align 1
  %13 = alloca i1, align 1
  %14 = alloca ptr, align 8
  %15 = alloca i32, align 4
  %16 = alloca %"class.google::protobuf::internal::LogFinisher", align 1
  %17 = alloca %"class.google::protobuf::io::StringOutputStream", align 8
  %18 = alloca %"class.google::protobuf::TextFormat::Printer::TextGenerator", align 8
  store ptr %0, ptr %6, align 8, !tbaa !10
  store ptr %1, ptr %7, align 8, !tbaa !3
  store ptr %2, ptr %8, align 8, !tbaa !58
  store i32 %3, ptr %9, align 4, !tbaa !95
  store ptr %4, ptr %10, align 8, !tbaa !8
  %19 = load ptr, ptr %6, align 8
  br label %20

20:                                               ; preds = %37, %5
  br i1 false, label %21, label %53

21:                                               ; preds = %20
  %22 = load ptr, ptr %10, align 8, !tbaa !8
  %23 = icmp ne ptr %22, null
  store i1 false, ptr %12, align 1
  store i1 false, ptr %13, align 1
  call void @llvm.lifetime.start.p0(i64 1, ptr %16) #3
  br i1 %23, label %24, label %25

24:                                               ; preds = %21
  br label %31

25:                                               ; preds = %21
  call void @llvm.lifetime.start.p0(i64 56, ptr %11) #3
  store i1 true, ptr %12, align 1
  call void @_ZN6google8protobuf8internal10LogMessageC1ENS0_8LogLevelEPKci(ptr noundef nonnull align 8 dereferenceable(56) %11, i32 noundef 3, ptr noundef @.str.1, i32 noundef 2241)
  store i1 true, ptr %13, align 1
  %26 = invoke noundef nonnull align 8 dereferenceable(56) ptr @_ZN6google8protobuf8internal10LogMessagelsEPKc(ptr noundef nonnull align 8 dereferenceable(56) %11, ptr noundef @.str.18)
          to label %27 unwind label %38

27:                                               ; preds = %25
  %28 = invoke noundef nonnull align 8 dereferenceable(56) ptr @_ZN6google8protobuf8internal10LogMessagelsEPKc(ptr noundef nonnull align 8 dereferenceable(56) %26, ptr noundef @.str.19)
          to label %29 unwind label %38

29:                                               ; preds = %27
  invoke void @_ZN6google8protobuf8internal11LogFinisheraSERNS1_10LogMessageE(ptr noundef nonnull align 1 dereferenceable(1) %16, ptr noundef nonnull align 8 dereferenceable(56) %28)
          to label %30 unwind label %42

30:                                               ; preds = %29
  br label %31

31:                                               ; preds = %30, %24
  call void @llvm.lifetime.end.p0(i64 1, ptr %16) #3
  %32 = load i1, ptr %13, align 1
  br i1 %32, label %33, label %34

33:                                               ; preds = %31
  call void @_ZN6google8protobuf8internal10LogMessageD1Ev(ptr noundef nonnull align 8 dereferenceable(56) %11) #3
  br label %34

34:                                               ; preds = %33, %31
  %35 = load i1, ptr %12, align 1
  br i1 %35, label %36, label %37

36:                                               ; preds = %34
  call void @llvm.lifetime.end.p0(i64 56, ptr %11) #3
  br label %37

37:                                               ; preds = %36, %34
  br label %20, !llvm.loop !303

38:                                               ; preds = %27, %25
  %39 = landingpad { ptr, i32 }
          cleanup
  %40 = extractvalue { ptr, i32 } %39, 0
  store ptr %40, ptr %14, align 8
  %41 = extractvalue { ptr, i32 } %39, 1
  store i32 %41, ptr %15, align 4
  br label %46

42:                                               ; preds = %29
  %43 = landingpad { ptr, i32 }
          cleanup
  %44 = extractvalue { ptr, i32 } %43, 0
  store ptr %44, ptr %14, align 8
  %45 = extractvalue { ptr, i32 } %43, 1
  store i32 %45, ptr %15, align 4
  call void @llvm.lifetime.end.p0(i64 1, ptr %16) #3
  br label %46

46:                                               ; preds = %42, %38
  %47 = load i1, ptr %13, align 1
  br i1 %47, label %48, label %49

48:                                               ; preds = %46
  call void @_ZN6google8protobuf8internal10LogMessageD1Ev(ptr noundef nonnull align 8 dereferenceable(56) %11) #3
  br label %49

49:                                               ; preds = %48, %46
  %50 = load i1, ptr %12, align 1
  br i1 %50, label %51, label %52

51:                                               ; preds = %49
  call void @llvm.lifetime.end.p0(i64 56, ptr %11) #3
  br label %52

52:                                               ; preds = %51, %49
  br label %75

53:                                               ; preds = %20
  %54 = load ptr, ptr %10, align 8, !tbaa !8
  call void @_ZNSt7__cxx1112basic_stringIcSt11char_traitsIcESaIcEE5clearEv(ptr noundef nonnull align 8 dereferenceable(32) %54) #3
  call void @llvm.lifetime.start.p0(i64 16, ptr %17) #3
  %55 = load ptr, ptr %10, align 8, !tbaa !8
  call void @_ZN6google8protobuf2io18StringOutputStreamC1EPNSt7__cxx1112basic_stringIcSt11char_traitsIcESaIcEEE(ptr noundef nonnull align 8 dereferenceable(16) %17, ptr noundef %55)
  call void @llvm.lifetime.start.p0(i64 40, ptr %18) #3
  %56 = getelementptr inbounds nuw %"class.google::protobuf::TextFormat::Printer", ptr %19, i32 0, i32 0
  %57 = load i32, ptr %56, align 8, !tbaa !207
  invoke void @_ZN6google8protobuf10TextFormat7Printer13TextGeneratorC2EPNS0_2io20ZeroCopyOutputStreamEi(ptr noundef nonnull align 8 dereferenceable(40) %18, ptr noundef %17, i32 noundef %57)
          to label %58 unwind label %66

58:                                               ; preds = %53
  %59 = load ptr, ptr %7, align 8, !tbaa !3
  %60 = load ptr, ptr %7, align 8, !tbaa !3
  %61 = invoke noundef ptr @_ZNK6google8protobuf7Message13GetReflectionEv(ptr noundef nonnull align 8 dereferenceable(16) %60)
          to label %62 unwind label %70

62:                                               ; preds = %58
  %63 = load ptr, ptr %8, align 8, !tbaa !58
  %64 = load i32, ptr %9, align 4, !tbaa !95
  invoke void @_ZNK6google8protobuf10TextFormat7Printer15PrintFieldValueERKNS0_7MessageEPKNS0_10ReflectionEPKNS0_15FieldDescriptorEiPNS2_13TextGeneratorE(ptr noundef nonnull align 8 dereferenceable(136) %19, ptr noundef nonnull align 8 dereferenceable(16) %59, ptr noundef %61, ptr noundef %63, i32 noundef %64, ptr noundef %18)
          to label %65 unwind label %70

65:                                               ; preds = %62
  call void @_ZN6google8protobuf10TextFormat7Printer13TextGeneratorD2Ev(ptr noundef nonnull align 8 dereferenceable(40) %18) #3
  call void @llvm.lifetime.end.p0(i64 40, ptr %18) #3
  call void @_ZN6google8protobuf2io20ZeroCopyOutputStreamD2Ev(ptr noundef nonnull align 8 dereferenceable(16) %17) #3
  call void @llvm.lifetime.end.p0(i64 16, ptr %17) #3
  ret void

66:                                               ; preds = %53
  %67 = landingpad { ptr, i32 }
          cleanup
  %68 = extractvalue { ptr, i32 } %67, 0
  store ptr %68, ptr %14, align 8
  %69 = extractvalue { ptr, i32 } %67, 1
  store i32 %69, ptr %15, align 4
  br label %74

70:                                               ; preds = %62, %58
  %71 = landingpad { ptr, i32 }
          cleanup
  %72 = extractvalue { ptr, i32 } %71, 0
  store ptr %72, ptr %14, align 8
  %73 = extractvalue { ptr, i32 } %71, 1
  store i32 %73, ptr %15, align 4
  call void @_ZN6google8protobuf10TextFormat7Printer13TextGeneratorD2Ev(ptr noundef nonnull align 8 dereferenceable(40) %18) #3
  br label %74

74:                                               ; preds = %70, %66
  call void @llvm.lifetime.end.p0(i64 40, ptr %18) #3
  call void @_ZN6google8protobuf2io20ZeroCopyOutputStreamD2Ev(ptr noundef nonnull align 8 dereferenceable(16) %17) #3
  call void @llvm.lifetime.end.p0(i64 16, ptr %17) #3
  br label %75

75:                                               ; preds = %74, %52
  %76 = load ptr, ptr %14, align 8
  %77 = load i32, ptr %15, align 4
  %78 = insertvalue { ptr, i32 } poison, ptr %76, 0
  %79 = insertvalue { ptr, i32 } %78, i32 %77, 1
  resume { ptr, i32 } %79
}