; Function Attrs: mustprogress uwtable
define hidden void @_ZNK6google8protobuf10TextFormat7Printer23PrintFieldValueToStringERKNS0_7MessageEPKNS0_15FieldDescriptorEiPNSt7__cxx1112basic_stringIcSt11char_traitsIcESaIcEEE(ptr noundef nonnull align 8 dereferenceable(136) %0, ptr noundef nonnull align 8 dereferenceable(16) %1, ptr noundef %2, i32 noundef %3, ptr noundef initializes((8, 16)) %4) local_unnamed_addr #3 align 2 personality ptr @__gxx_personality_v0 {
  %6 = alloca %"class.google::protobuf::io::StringOutputStream", align 8
  %7 = alloca %"class.google::protobuf::TextFormat::Printer::TextGenerator", align 8
  %8 = getelementptr inbounds nuw i8, ptr %4, i64 8
  store i64 0, ptr %8, align 8, !tbaa !9
  %9 = load ptr, ptr %4, align 8, !tbaa !48
  store i8 0, ptr %9, align 1, !tbaa !12
  call void @llvm.lifetime.start.p0(i64 16, ptr nonnull %6) #31
  call void @_ZN6google8protobuf2io18StringOutputStreamC1EPNSt7__cxx1112basic_stringIcSt11char_traitsIcESaIcEEE(ptr noundef nonnull align 8 dereferenceable(16) %6, ptr noundef nonnull %4)
  call void @llvm.lifetime.start.p0(i64 40, ptr nonnull %7) #31
  %10 = load i32, ptr %0, align 8, !tbaa !51
  store ptr getelementptr inbounds nuw inrange(-16, 48) (i8, ptr @_ZTVN6google8protobuf10TextFormat7Printer13TextGeneratorE, i64 16), ptr %7, align 8, !tbaa !24
  %11 = getelementptr inbounds nuw i8, ptr %7, i64 8
  store ptr %6, ptr %11, align 8, !tbaa !52
  %12 = getelementptr inbounds nuw i8, ptr %7, i64 16
  store ptr null, ptr %12, align 8, !tbaa !56
  %13 = getelementptr inbounds nuw i8, ptr %7, i64 24
  store i32 0, ptr %13, align 8, !tbaa !57
  %14 = getelementptr inbounds nuw i8, ptr %7, i64 28
  store i8 1, ptr %14, align 4, !tbaa !58
  %15 = getelementptr inbounds nuw i8, ptr %7, i64 29
  store i8 0, ptr %15, align 1, !tbaa !59
  %16 = getelementptr inbounds nuw i8, ptr %7, i64 30
  store i8 0, ptr %16, align 2, !tbaa !60
  %17 = getelementptr inbounds nuw i8, ptr %7, i64 32
  store i32 %10, ptr %17, align 8, !tbaa !61
  %18 = getelementptr inbounds nuw i8, ptr %7, i64 36
  store i32 %10, ptr %18, align 4, !tbaa !62
  %19 = load ptr, ptr %1, align 8, !tbaa !24
  %20 = getelementptr inbounds nuw i8, ptr %19, i64 136
  %21 = load ptr, ptr %20, align 8
  %22 = invoke { ptr, ptr } %21(ptr noundef nonnull align 8 dereferenceable(16) %1)
          to label %23 unwind label %39

23:                                               ; preds = %5
  %24 = extractvalue { ptr, ptr } %22, 1
  invoke void @_ZNK6google8protobuf10TextFormat7Printer15PrintFieldValueERKNS0_7MessageEPKNS0_10ReflectionEPKNS0_15FieldDescriptorEiPNS2_13TextGeneratorE(ptr noundef nonnull align 8 dereferenceable(136) %0, ptr noundef nonnull align 8 dereferenceable(16) %1, ptr noundef %24, ptr noundef %2, i32 noundef %3, ptr noundef nonnull %7)
          to label %25 unwind label %39

25:                                               ; preds = %23
  store ptr getelementptr inbounds nuw inrange(-16, 48) (i8, ptr @_ZTVN6google8protobuf10TextFormat7Printer13TextGeneratorE, i64 16), ptr %7, align 8, !tbaa !24
  %26 = load i8, ptr %15, align 1, !tbaa !59, !range !49, !noundef !50
  %27 = trunc nuw i8 %26 to i1
  br i1 %27, label %_ZN6google8protobuf10TextFormat7Printer13TextGeneratorD2Ev.exit, label %28

28:                                               ; preds = %25
  %29 = load i32, ptr %13, align 8, !tbaa !57
  %30 = icmp sgt i32 %29, 0
  br i1 %30, label %31, label %_ZN6google8protobuf10TextFormat7Printer13TextGeneratorD2Ev.exit

31:                                               ; preds = %28
  %32 = load ptr, ptr %11, align 8, !tbaa !52
  %33 = load ptr, ptr %32, align 8, !tbaa !24
  %34 = getelementptr inbounds nuw i8, ptr %33, i64 24
  %35 = load ptr, ptr %34, align 8
  invoke void %35(ptr noundef nonnull align 8 dereferenceable(8) %32, i32 noundef %29)
          to label %_ZN6google8protobuf10TextFormat7Printer13TextGeneratorD2Ev.exit unwind label %36

36:                                               ; preds = %31
  %37 = landingpad { ptr, i32 }
          catch ptr null
  %38 = extractvalue { ptr, i32 } %37, 0
  call void @__clang_call_terminate(ptr %38) #33
  unreachable

_ZN6google8protobuf10TextFormat7Printer13TextGeneratorD2Ev.exit: ; preds = %25, %28, %31
  call void @llvm.lifetime.end.p0(i64 40, ptr nonnull %7) #31
  call void @llvm.lifetime.end.p0(i64 16, ptr nonnull %6) #31
  ret void

39:                                               ; preds = %5, %23
  %40 = landingpad { ptr, i32 }
          cleanup
  call void @_ZN6google8protobuf10TextFormat7Printer13TextGeneratorD2Ev(ptr noundef nonnull align 8 dereferenceable(40) %7) #31
  call void @llvm.lifetime.end.p0(i64 40, ptr nonnull %7) #31
  call void @llvm.lifetime.end.p0(i64 16, ptr nonnull %6) #31
  resume { ptr, i32 } %40
}